; Function Attrs: mustprogress nounwind uwtable
define noundef nonnull align 8 dereferenceable(16) ptr @_ZNK24json11_internal_lightgbm9JsonArrayixEm(ptr nocapture noundef nonnull readonly align 8 dereferenceable(32) %0, i64 noundef %1) unnamed_addr #2 align 2 {
  %3 = getelementptr inbounds i8, ptr %0, i64 8
  %4 = getelementptr inbounds i8, ptr %0, i64 16
  %5 = load ptr, ptr %4, align 8
  %6 = load ptr, ptr %3, align 8
  %7 = ptrtoint ptr %5 to i64
  %8 = ptrtoint ptr %6 to i64
  %9 = sub i64 %7, %8
  %10 = ashr exact i64 %9, 4
  %.not = icmp ugt i64 %10, %1
  br i1 %.not, label %18, label %11

11:                                               ; preds = %2
  %12 = load atomic i8, ptr @_ZGVZN24json11_internal_lightgbmL11static_nullEvE9json_null acquire, align 8
  %13 = icmp eq i8 %12, 0
  br i1 %13, label %14, label %_ZN24json11_internal_lightgbmL11static_nullEv.exit, !prof !5

14:                                               ; preds = %11
  %15 = tail call i32 @__cxa_guard_acquire(ptr nonnull @_ZGVZN24json11_internal_lightgbmL11static_nullEvE9json_null) #22
  %.not.i = icmp eq i32 %15, 0
  br i1 %.not.i, label %_ZN24json11_internal_lightgbmL11static_nullEv.exit, label %16

16:                                               ; preds = %14
  tail call void @_ZN24json11_internal_lightgbm4JsonC1Ev(ptr noundef nonnull align 8 dereferenceable(16) @_ZZN24json11_internal_lightgbmL11static_nullEvE9json_null) #22
  %17 = tail call i32 @__cxa_atexit(ptr nonnull @_ZN24json11_internal_lightgbm4JsonD2Ev, ptr nonnull @_ZZN24json11_internal_lightgbmL11static_nullEvE9json_null, ptr nonnull @__dso_handle) #22
  tail call void @__cxa_guard_release(ptr nonnull @_ZGVZN24json11_internal_lightgbmL11static_nullEvE9json_null) #22
  br label %_ZN24json11_internal_lightgbmL11static_nullEv.exit

18:                                               ; preds = %2
  %19 = getelementptr inbounds %"class.json11_internal_lightgbm::Json", ptr %6, i64 %1
  br label %_ZN24json11_internal_lightgbmL11static_nullEv.exit

_ZN24json11_internal_lightgbmL11static_nullEv.exit: ; preds = %16, %14, %11, %18
  %.0 = phi ptr [ %19, %18 ], [ @_ZZN24json11_internal_lightgbmL11static_nullEvE9json_null, %11 ], [ @_ZZN24json11_internal_lightgbmL11static_nullEvE9json_null, %14 ], [ @_ZZN24json11_internal_lightgbmL11static_nullEvE9json_null, %16 ]
  ret ptr %.0
}